target datalayout = "e-m:e-p270:32:32-p271:32:32-p272:64:64-i64:64-i128:128-f80:128-n8:16:32:64-S128"
target triple = "x86_64-pc-linux-gnu"

%"class.llvm::MachineIRBuilder" = type { ptr, %"struct.llvm::MachineIRBuilderState" }
%"struct.llvm::MachineIRBuilderState" = type { ptr, ptr, ptr, %"class.llvm::DebugLoc", ptr, ptr, ptr, %"class.llvm::MachineInstrBundleIterator.0", ptr, ptr }
%"class.llvm::DebugLoc" = type { %"class.llvm::TypedTrackingMDRef" }
%"class.llvm::TypedTrackingMDRef" = type { %"class.llvm::TrackingMDRef" }
%"class.llvm::TrackingMDRef" = type { ptr }
%"class.llvm::MachineInstrBundleIterator.0" = type { %"class.llvm::ilist_iterator.1" }
%"class.llvm::ilist_iterator.1" = type { ptr }
%"class.llvm::Register" = type { i32 }
%"class.llvm::LLT" = type { i64 }
%"class.llvm::DstOp" = type <{ %union.anon, i32, [4 x i8] }>
%union.anon = type { %"class.llvm::LLT" }
%"class.llvm::SmallVectorBase" = type { ptr, i32, i32 }
%"class.llvm::SmallVectorImpl.172" = type { %"class.llvm::SmallVectorTemplateBase.173" }
%"class.llvm::SmallVectorTemplateBase.173" = type { %"class.llvm::SmallVectorTemplateCommon.174" }
%"class.llvm::SmallVectorTemplateCommon.174" = type { %"class.llvm::SmallVectorBase" }
%"class.llvm::MachineRegisterInfo" = type { ptr, %"class.llvm::SmallPtrSet.134", i8, [7 x i8], %"class.llvm::IndexedMap", %"class.llvm::IndexedMap.146", %"class.llvm::StringSet", i8, %"class.llvm::SmallVector.157", %"class.llvm::IndexedMap.163", %"class.std::unique_ptr.177", %"class.llvm::BitVector", %"class.llvm::BitVector", %"class.llvm::IndexedMap.190", %"class.std::vector.197" }
%"class.llvm::SmallPtrSet.134" = type { %"class.llvm::SmallPtrSetImpl.base.136", [1 x ptr] }
%"class.llvm::SmallPtrSetImpl.base.136" = type { %"class.llvm::SmallPtrSetImplBase.base" }
%"class.llvm::SmallPtrSetImplBase.base" = type <{ ptr, ptr, i32, i32, i32 }>
%"class.llvm::IndexedMap" = type <{ %"class.llvm::SmallVector.137", %"struct.std::pair", [8 x i8] }>
%"class.llvm::SmallVector.137" = type { %"class.llvm::SmallVectorImpl.138" }
%"class.llvm::SmallVectorImpl.138" = type { %"class.llvm::SmallVectorTemplateBase.139" }
%"class.llvm::SmallVectorTemplateBase.139" = type { %"class.llvm::SmallVectorTemplateCommon.140" }
%"class.llvm::SmallVectorTemplateCommon.140" = type { %"class.llvm::SmallVectorBase" }
%"struct.std::pair" = type { %"class.llvm::PointerUnion", ptr }
%"class.llvm::PointerUnion" = type { %"class.llvm::pointer_union_detail::PointerUnionMembers" }
%"class.llvm::pointer_union_detail::PointerUnionMembers" = type { %"class.llvm::pointer_union_detail::PointerUnionMembers.142" }
%"class.llvm::pointer_union_detail::PointerUnionMembers.142" = type { %"class.llvm::pointer_union_detail::PointerUnionMembers.143" }
%"class.llvm::pointer_union_detail::PointerUnionMembers.143" = type { %"class.llvm::PointerIntPair.144" }
%"class.llvm::PointerIntPair.144" = type { %"struct.llvm::detail::PunnedPointer.145" }
%"struct.llvm::detail::PunnedPointer.145" = type { [8 x i8] }
%"class.llvm::IndexedMap.146" = type <{ %"class.llvm::SmallVector.147", %"class.std::__cxx11::basic_string", [8 x i8] }>
%"class.llvm::SmallVector.147" = type { %"class.llvm::SmallVectorImpl.148" }
%"class.llvm::SmallVectorImpl.148" = type { %"class.llvm::SmallVectorTemplateBase.149" }
%"class.llvm::SmallVectorTemplateBase.149" = type { %"class.llvm::SmallVectorTemplateCommon.150" }
%"class.llvm::SmallVectorTemplateCommon.150" = type { %"class.llvm::SmallVectorBase" }
%"class.std::__cxx11::basic_string" = type { %"struct.std::__cxx11::basic_string<char>::_Alloc_hider", i64, %union.anon.155 }
%"struct.std::__cxx11::basic_string<char>::_Alloc_hider" = type { ptr }
%union.anon.155 = type { i64, [8 x i8] }
%"class.llvm::StringSet" = type { %"class.llvm::StringMap" }
%"class.llvm::StringMap" = type { %"class.llvm::StringMapImpl" }
%"class.llvm::StringMapImpl" = type { ptr, i32, i32, i32, i32 }
%"class.llvm::SmallVector.157" = type { %"class.llvm::SmallVectorImpl.158", %"struct.llvm::SmallVectorStorage.162" }
%"class.llvm::SmallVectorImpl.158" = type { %"class.llvm::SmallVectorTemplateBase.159" }
%"class.llvm::SmallVectorTemplateBase.159" = type { %"class.llvm::SmallVectorTemplateCommon.160" }
%"class.llvm::SmallVectorTemplateCommon.160" = type { %"class.llvm::SmallVectorBase.161" }
%"class.llvm::SmallVectorBase.161" = type { ptr, i64, i64 }
%"struct.llvm::SmallVectorStorage.162" = type { [32 x i8] }
%"class.llvm::IndexedMap.163" = type <{ %"class.llvm::SmallVector.164", %"struct.std::pair.169", [8 x i8] }>
%"class.llvm::SmallVector.164" = type { %"class.llvm::SmallVectorImpl.165" }
%"class.llvm::SmallVectorImpl.165" = type { %"class.llvm::SmallVectorTemplateBase.166" }
%"class.llvm::SmallVectorTemplateBase.166" = type { %"class.llvm::SmallVectorTemplateCommon.167" }
%"class.llvm::SmallVectorTemplateCommon.167" = type { %"class.llvm::SmallVectorBase" }
%"struct.std::pair.169" = type { i32, %"class.llvm::SmallVector.171" }
%"class.llvm::SmallVector.171" = type { %"class.llvm::SmallVectorImpl.172", %"struct.llvm::SmallVectorStorage.175" }
%"struct.llvm::SmallVectorStorage.175" = type { [16 x i8] }
%"class.std::unique_ptr.177" = type { %"struct.std::__uniq_ptr_data.178" }
%"struct.std::__uniq_ptr_data.178" = type { %"class.std::__uniq_ptr_impl.179" }
%"class.std::__uniq_ptr_impl.179" = type { %"class.std::tuple.180" }
%"class.std::tuple.180" = type { %"struct.std::_Tuple_impl.181" }
%"struct.std::_Tuple_impl.181" = type { %"struct.std::_Head_base.184" }
%"struct.std::_Head_base.184" = type { ptr }
%"class.llvm::BitVector" = type <{ %"class.llvm::SmallVector.185", i32, [4 x i8] }>
%"class.llvm::SmallVector.185" = type { %"class.llvm::SmallVectorImpl.186", %"struct.llvm::SmallVectorStorage.189" }
%"class.llvm::SmallVectorImpl.186" = type { %"class.llvm::SmallVectorTemplateBase.187" }
%"class.llvm::SmallVectorTemplateBase.187" = type { %"class.llvm::SmallVectorTemplateCommon.188" }
%"class.llvm::SmallVectorTemplateCommon.188" = type { %"class.llvm::SmallVectorBase" }
%"struct.llvm::SmallVectorStorage.189" = type { [48 x i8] }
%"class.llvm::IndexedMap.190" = type <{ %"class.llvm::SmallVector.191", %"class.llvm::LLT", [8 x i8] }>
%"class.llvm::SmallVector.191" = type { %"class.llvm::SmallVectorImpl.192" }
%"class.llvm::SmallVectorImpl.192" = type { %"class.llvm::SmallVectorTemplateBase.193" }
%"class.llvm::SmallVectorTemplateBase.193" = type { %"class.llvm::SmallVectorTemplateCommon.194" }
%"class.llvm::SmallVectorTemplateCommon.194" = type { %"class.llvm::SmallVectorBase" }
%"class.std::vector.197" = type { %"struct.std::_Vector_base.198" }
%"struct.std::_Vector_base.198" = type { %"struct.std::_Vector_base<std::pair<llvm::MCRegister, llvm::Register>, std::allocator<std::pair<llvm::MCRegister, llvm::Register>>>::_Vector_impl" }
%"struct.std::_Vector_base<std::pair<llvm::MCRegister, llvm::Register>, std::allocator<std::pair<llvm::MCRegister, llvm::Register>>>::_Vector_impl" = type { %"struct.std::_Vector_base<std::pair<llvm::MCRegister, llvm::Register>, std::allocator<std::pair<llvm::MCRegister, llvm::Register>>>::_Vector_impl_data" }
%"struct.std::_Vector_base<std::pair<llvm::MCRegister, llvm::Register>, std::allocator<std::pair<llvm::MCRegister, llvm::Register>>>::_Vector_impl_data" = type { ptr, ptr, ptr }

; Function Attrs: mustprogress nounwind uwtable
define linkonce_odr hidden noundef i32 @_ZNK4llvm8RegistercvjEv(ptr noundef nonnull align 4 dereferenceable(4) %0) #0 comdat align 2 {
  %2 = alloca ptr, align 8
  store ptr %0, ptr %2, align 8
  %3 = load ptr, ptr %2, align 8
  %4 = getelementptr inbounds nuw %"class.llvm::Register", ptr %3, i32 0, i32 0
  %5 = load i32, ptr %4, align 4
  ret i32 %5
}

; Function Attrs: mustprogress nounwind uwtable
define linkonce_odr hidden noundef ptr @_ZNK4llvm25SmallVectorTemplateCommonINS_3LLTEvE5beginEv(ptr noundef nonnull align 8 dereferenceable(16) %0) #0 comdat align 2 {
  %2 = alloca ptr, align 8
  store ptr %0, ptr %2, align 8
  %3 = load ptr, ptr %2, align 8
  %4 = getelementptr inbounds nuw %"class.llvm::SmallVectorBase", ptr %3, i32 0, i32 0
  %5 = load ptr, ptr %4, align 8
  ret ptr %5
}

; Function Attrs: mustprogress nounwind uwtable
define linkonce_odr hidden noundef i32 @_ZN4llvm8Register13virtReg2IndexES0_(i32 %0) #0 comdat align 2 {
  %2 = alloca %"class.llvm::Register", align 4
  %3 = getelementptr inbounds nuw %"class.llvm::Register", ptr %2, i32 0, i32 0
  store i32 %0, ptr %3, align 4
  %4 = call noundef i32 @_ZNK4llvm8RegistercvjEv(ptr noundef nonnull align 4 dereferenceable(4) %2)
  %5 = and i32 %4, 2147483647
  ret i32 %5
}

; Function Attrs: mustprogress nounwind uwtable
define linkonce_odr hidden noundef nonnull align 8 dereferenceable(8) ptr @_ZNK4llvm25SmallVectorTemplateCommonINS_3LLTEvEixEm(ptr noundef nonnull align 8 dereferenceable(16) %0, i64 noundef %1) #0 comdat align 2 {
  %3 = alloca ptr, align 8
  %4 = alloca i64, align 8
  store ptr %0, ptr %3, align 8
  store i64 %1, ptr %4, align 8
  %5 = load ptr, ptr %3, align 8
  %6 = call noundef ptr @_ZNK4llvm25SmallVectorTemplateCommonINS_3LLTEvE5beginEv(ptr noundef nonnull align 8 dereferenceable(16) %5)
  %7 = load i64, ptr %4, align 8
  %8 = getelementptr inbounds %"class.llvm::LLT", ptr %6, i64 %7
  ret ptr %8
}

; Function Attrs: mustprogress nounwind uwtable
define linkonce_odr hidden noundef i32 @_ZNK4llvm20VirtReg2IndexFunctorclENS_8RegisterE(ptr noundef nonnull align 1 dereferenceable(1) %0, i32 %1) #0 comdat align 2 {
  %3 = alloca %"class.llvm::Register", align 4
  %4 = alloca ptr, align 8
  %5 = alloca %"class.llvm::Register", align 4
  %6 = getelementptr inbounds nuw %"class.llvm::Register", ptr %3, i32 0, i32 0
  store i32 %1, ptr %6, align 4
  store ptr %0, ptr %4, align 8
  call void @llvm.memcpy.p0.p0.i64(ptr align 4 %5, ptr align 4 %3, i64 4, i1 false)
  %7 = getelementptr inbounds nuw %"class.llvm::Register", ptr %5, i32 0, i32 0
  %8 = load i32, ptr %7, align 4
  %9 = call noundef i32 @_ZN4llvm8Register13virtReg2IndexES0_(i32 %8)
  ret i32 %9
}

; Function Attrs: mustprogress nounwind uwtable
define linkonce_odr hidden noundef zeroext i1 @_ZN4llvm8Register17isVirtualRegisterEj(i32 noundef %0) #0 comdat align 2 {
  %2 = alloca i32, align 4
  store i32 %0, ptr %2, align 4
  %3 = load i32, ptr %2, align 4
  %4 = and i32 %3, -2147483648
  %5 = icmp ne i32 %4, 0
  ret i1 %5
}

; Function Attrs: mustprogress nounwind uwtable
define linkonce_odr hidden noundef nonnull align 8 dereferenceable(8) ptr @_ZNK4llvm10IndexedMapINS_3LLTENS_20VirtReg2IndexFunctorEEixENS_8RegisterE(ptr noundef nonnull align 8 dereferenceable(25) %0, i32 %1) #0 comdat align 2 {
  %3 = alloca %"class.llvm::Register", align 4
  %4 = alloca ptr, align 8
  %5 = alloca %"class.llvm::Register", align 4
  %6 = getelementptr inbounds nuw %"class.llvm::Register", ptr %3, i32 0, i32 0
  store i32 %1, ptr %6, align 4
  store ptr %0, ptr %4, align 8
  %7 = load ptr, ptr %4, align 8
  %8 = getelementptr inbounds nuw %"class.llvm::IndexedMap.190", ptr %7, i32 0, i32 0
  %9 = getelementptr inbounds i8, ptr %7, i64 24
  call void @llvm.memcpy.p0.p0.i64(ptr align 4 %5, ptr align 4 %3, i64 4, i1 false)
  %10 = getelementptr inbounds nuw %"class.llvm::Register", ptr %5, i32 0, i32 0
  %11 = load i32, ptr %10, align 4
  %12 = call noundef i32 @_ZNK4llvm20VirtReg2IndexFunctorclENS_8RegisterE(ptr noundef nonnull align 1 dereferenceable(1) %9, i32 %11)
  %13 = zext i32 %12 to i64
  %14 = call noundef nonnull align 8 dereferenceable(8) ptr @_ZNK4llvm25SmallVectorTemplateCommonINS_3LLTEvEixEm(ptr noundef nonnull align 8 dereferenceable(16) %8, i64 noundef %13)
  ret ptr %14
}

; Function Attrs: mustprogress nounwind uwtable
define linkonce_odr hidden noundef zeroext i1 @_ZNK4llvm10IndexedMapINS_3LLTENS_20VirtReg2IndexFunctorEE8inBoundsENS_8RegisterE(ptr noundef nonnull align 8 dereferenceable(25) %0, i32 %1) #0 comdat align 2 {
  %3 = alloca %"class.llvm::Register", align 4
  %4 = alloca ptr, align 8
  %5 = alloca %"class.llvm::Register", align 4
  %6 = getelementptr inbounds nuw %"class.llvm::Register", ptr %3, i32 0, i32 0
  store i32 %1, ptr %6, align 4
  store ptr %0, ptr %4, align 8
  %7 = load ptr, ptr %4, align 8
  %8 = getelementptr inbounds i8, ptr %7, i64 24
  call void @llvm.memcpy.p0.p0.i64(ptr align 4 %5, ptr align 4 %3, i64 4, i1 false)
  %9 = getelementptr inbounds nuw %"class.llvm::Register", ptr %5, i32 0, i32 0
  %10 = load i32, ptr %9, align 4
  %11 = call noundef i32 @_ZNK4llvm20VirtReg2IndexFunctorclENS_8RegisterE(ptr noundef nonnull align 1 dereferenceable(1) %8, i32 %10)
  %12 = zext i32 %11 to i64
  %13 = getelementptr inbounds nuw %"class.llvm::IndexedMap.190", ptr %7, i32 0, i32 0
  %14 = call noundef i64 @_ZNK4llvm15SmallVectorBaseIjE4sizeEv(ptr noundef nonnull align 8 dereferenceable(16) %13)
  %15 = icmp ult i64 %12, %14
  ret i1 %15
}

; Function Attrs: mustprogress nounwind uwtable
define linkonce_odr hidden noundef zeroext i1 @_ZNK4llvm8Register9isVirtualEv(ptr noundef nonnull align 4 dereferenceable(4) %0) #0 comdat align 2 {
  %2 = alloca ptr, align 8
  store ptr %0, ptr %2, align 8
  %3 = load ptr, ptr %2, align 8
  %4 = getelementptr inbounds nuw %"class.llvm::Register", ptr %3, i32 0, i32 0
  %5 = load i32, ptr %4, align 4
  %6 = call noundef zeroext i1 @_ZN4llvm8Register17isVirtualRegisterEj(i32 noundef %5)
  ret i1 %6
}

; Function Attrs: mustprogress nounwind uwtable
define linkonce_odr hidden i64 @_ZNK4llvm19MachineRegisterInfo7getTypeENS_8RegisterE(ptr noundef nonnull align 8 dereferenceable(512) %0, i32 %1) #0 comdat align 2 {
  %3 = alloca %"class.llvm::LLT", align 8
  %4 = alloca %"class.llvm::Register", align 4
  %5 = alloca ptr, align 8
  %6 = alloca %"class.llvm::Register", align 4
  %7 = alloca %"class.llvm::Register", align 4
  %8 = getelementptr inbounds nuw %"class.llvm::Register", ptr %4, i32 0, i32 0
  store i32 %1, ptr %8, align 4
  store ptr %0, ptr %5, align 8
  %9 = load ptr, ptr %5, align 8
  %10 = call noundef zeroext i1 @_ZNK4llvm8Register9isVirtualEv(ptr noundef nonnull align 4 dereferenceable(4) %4)
  br i1 %10, label %11, label %21

11:                                               ; preds = %2
  %12 = getelementptr inbounds nuw %"class.llvm::MachineRegisterInfo", ptr %9, i32 0, i32 13
  call void @llvm.memcpy.p0.p0.i64(ptr align 4 %6, ptr align 4 %4, i64 4, i1 false)
  %13 = getelementptr inbounds nuw %"class.llvm::Register", ptr %6, i32 0, i32 0
  %14 = load i32, ptr %13, align 4
  %15 = call noundef zeroext i1 @_ZNK4llvm10IndexedMapINS_3LLTENS_20VirtReg2IndexFunctorEE8inBoundsENS_8RegisterE(ptr noundef nonnull align 8 dereferenceable(25) %12, i32 %14)
  br i1 %15, label %16, label %21

16:                                               ; preds = %11
  %17 = getelementptr inbounds nuw %"class.llvm::MachineRegisterInfo", ptr %9, i32 0, i32 13
  call void @llvm.memcpy.p0.p0.i64(ptr align 4 %7, ptr align 4 %4, i64 4, i1 false)
  %18 = getelementptr inbounds nuw %"class.llvm::Register", ptr %7, i32 0, i32 0
  %19 = load i32, ptr %18, align 4
  %20 = call noundef nonnull align 8 dereferenceable(8) ptr @_ZNK4llvm10IndexedMapINS_3LLTENS_20VirtReg2IndexFunctorEEixENS_8RegisterE(ptr noundef nonnull align 8 dereferenceable(25) %17, i32 %19)
  call void @llvm.memcpy.p0.p0.i64(ptr align 8 %3, ptr align 8 %20, i64 8, i1 false)
  br label %22

21:                                               ; preds = %11, %2
  call void @_ZN4llvm3LLTC2Ev(ptr noundef nonnull align 8 dereferenceable(8) %3)
  br label %22

22:                                               ; preds = %21, %16
  %23 = getelementptr inbounds nuw %"class.llvm::LLT", ptr %3, i32 0, i32 0
  %24 = load i64, ptr %23, align 8
  ret i64 %24
}

; Function Attrs: mustprogress nounwind uwtable
define linkonce_odr hidden void @_ZN4llvm3LLTC2Ev(ptr noundef nonnull align 8 dereferenceable(8) %0) unnamed_addr #0 comdat align 2 {
  %2 = alloca ptr, align 8
  store ptr %0, ptr %2, align 8
  %3 = load ptr, ptr %2, align 8
  %4 = load i64, ptr %3, align 8
  %5 = and i64 %4, -2
  %6 = or i64 %5, 0
  store i64 %6, ptr %3, align 8
  %7 = load i64, ptr %3, align 8
  %8 = and i64 %7, -3
  %9 = or i64 %8, 0
  store i64 %9, ptr %3, align 8
  %10 = load i64, ptr %3, align 8
  %11 = and i64 %10, -5
  %12 = or i64 %11, 0
  store i64 %12, ptr %3, align 8
  %13 = load i64, ptr %3, align 8
  %14 = and i64 %13, 7
  %15 = or i64 %14, 0
  store i64 %15, ptr %3, align 8
  ret void
}

; Function Attrs: mustprogress nounwind uwtable
define linkonce_odr hidden i64 @_ZNK4llvm5DstOp8getLLTTyERKNS_19MachineRegisterInfoE(ptr noundef nonnull align 8 dereferenceable(12) %0, ptr noundef nonnull align 8 dereferenceable(512) %1) #0 comdat align 2 {
  %3 = alloca %"class.llvm::LLT", align 8
  %4 = alloca ptr, align 8
  %5 = alloca ptr, align 8
  %6 = alloca %"class.llvm::Register", align 4
  store ptr %0, ptr %4, align 8
  store ptr %1, ptr %5, align 8
  %7 = load ptr, ptr %4, align 8
  %8 = getelementptr inbounds nuw %"class.llvm::DstOp", ptr %7, i32 0, i32 1
  %9 = load i32, ptr %8, align 8
  switch i32 %9, label %20 [
    i32 2, label %10
    i32 0, label %11
    i32 1, label %13
  ]

10:                                               ; preds = %2
  call void @_ZN4llvm3LLTC2Ev(ptr noundef nonnull align 8 dereferenceable(8) %3)
  br label %21

11:                                               ; preds = %2
  %12 = getelementptr inbounds nuw %"class.llvm::DstOp", ptr %7, i32 0, i32 0
  call void @llvm.memcpy.p0.p0.i64(ptr align 8 %3, ptr align 8 %12, i64 8, i1 false)
  br label %21

13:                                               ; preds = %2
  %14 = load ptr, ptr %5, align 8
  %15 = getelementptr inbounds nuw %"class.llvm::DstOp", ptr %7, i32 0, i32 0
  call void @llvm.memcpy.p0.p0.i64(ptr align 4 %6, ptr align 8 %15, i64 4, i1 false)
  %16 = getelementptr inbounds nuw %"class.llvm::Register", ptr %6, i32 0, i32 0
  %17 = load i32, ptr %16, align 4
  %18 = call i64 @_ZNK4llvm19MachineRegisterInfo7getTypeENS_8RegisterE(ptr noundef nonnull align 8 dereferenceable(512) %14, i32 %17)
  %19 = getelementptr inbounds nuw %"class.llvm::LLT", ptr %3, i32 0, i32 0
  store i64 %18, ptr %19, align 8
  br label %21

20:                                               ; preds = %2
  unreachable

21:                                               ; preds = %13, %11, %10
  %22 = getelementptr inbounds nuw %"class.llvm::LLT", ptr %3, i32 0, i32 0
  %23 = load i64, ptr %22, align 8
  ret i64 %23
}

; Function Attrs: mustprogress nounwind uwtable
define linkonce_odr hidden noundef ptr @_ZNK4llvm16MachineIRBuilder6getMRIEv(ptr noundef nonnull align 8 dereferenceable(88) %0) #0 comdat align 2 {
  %2 = alloca ptr, align 8
  store ptr %0, ptr %2, align 8
  %3 = load ptr, ptr %2, align 8
  %4 = getelementptr inbounds nuw %"class.llvm::MachineIRBuilder", ptr %3, i32 0, i32 1
  %5 = getelementptr inbounds nuw %"struct.llvm::MachineIRBuilderState", ptr %4, i32 0, i32 2
  %6 = load ptr, ptr %5, align 8
  ret ptr %6
}

; Function Attrs: mustprogress nounwind uwtable
define linkonce_odr hidden i32 @_ZNK4llvm5DstOp6getRegEv(ptr noundef nonnull align 8 dereferenceable(12) %0) #0 comdat align 2 {
  %2 = alloca %"class.llvm::Register", align 4
  %3 = alloca ptr, align 8
  store ptr %0, ptr %3, align 8
  %4 = load ptr, ptr %3, align 8
  %5 = getelementptr inbounds nuw %"class.llvm::DstOp", ptr %4, i32 0, i32 0
  call void @llvm.memcpy.p0.p0.i64(ptr align 4 %2, ptr align 8 %5, i64 4, i1 false)
  %6 = getelementptr inbounds nuw %"class.llvm::Register", ptr %2, i32 0, i32 0
  %7 = load i32, ptr %6, align 4
  ret i32 %7
}

; Function Attrs: mustprogress nounwind uwtable
define linkonce_odr hidden noundef ptr @_ZNK4llvm5DstOp11getRegClassEv(ptr noundef nonnull align 8 dereferenceable(12) %0) #0 comdat align 2 {
  %2 = alloca ptr, align 8
  store ptr %0, ptr %2, align 8
  %3 = load ptr, ptr %2, align 8
  %4 = getelementptr inbounds nuw %"class.llvm::DstOp", ptr %3, i32 0, i32 1
  %5 = load i32, ptr %4, align 8
  switch i32 %5, label %9 [
    i32 2, label %6
  ]

6:                                                ; preds = %1
  %7 = getelementptr inbounds nuw %"class.llvm::DstOp", ptr %3, i32 0, i32 0
  %8 = load ptr, ptr %7, align 8
  ret ptr %8

9:                                                ; preds = %1
  unreachable
}

; Function Attrs: mustprogress nounwind uwtable
define linkonce_odr hidden noundef i32 @_ZNK4llvm5DstOp12getDstOpKindEv(ptr noundef nonnull align 8 dereferenceable(12) %0) #0 comdat align 2 {
  %2 = alloca ptr, align 8
  store ptr %0, ptr %2, align 8
  %3 = load ptr, ptr %2, align 8
  %4 = getelementptr inbounds nuw %"class.llvm::DstOp", ptr %3, i32 0, i32 1
  %5 = load i32, ptr %4, align 8
  ret i32 %5
}

; Function Attrs: mustprogress nounwind uwtable
define dso_local void @_ZNK4llvm13CSEMIRBuilder12profileDstOpERKNS_5DstOpERNS_23GISelInstProfileBuilderE(ptr noundef nonnull align 8 dereferenceable(88) %0, ptr noundef nonnull align 8 dereferenceable(12) %1, ptr noundef nonnull align 8 dereferenceable(16) %2) #0 align 2 {
  %4 = alloca ptr, align 8
  %5 = alloca ptr, align 8
  %6 = alloca ptr, align 8
  %7 = alloca %"class.llvm::Register", align 4
  %8 = alloca %"class.llvm::LLT", align 8
  store ptr %0, ptr %4, align 8
  store ptr %1, ptr %5, align 8
  store ptr %2, ptr %6, align 8
  %9 = load ptr, ptr %4, align 8
  %10 = load ptr, ptr %5, align 8
  %11 = call noundef i32 @_ZNK4llvm5DstOp12getDstOpKindEv(ptr noundef nonnull align 8 dereferenceable(12) %10)
  switch i32 %11, label %25 [
    i32 2, label %12
    i32 1, label %17
  ]

12:                                               ; preds = %3
  %13 = load ptr, ptr %6, align 8
  %14 = load ptr, ptr %5, align 8
  %15 = call noundef ptr @_ZNK4llvm5DstOp11getRegClassEv(ptr noundef nonnull align 8 dereferenceable(12) %14)
  %16 = call noundef nonnull align 8 dereferenceable(16) ptr @_ZNK4llvm23GISelInstProfileBuilder16addNodeIDRegTypeEPKNS_19TargetRegisterClassE(ptr noundef nonnull align 8 dereferenceable(16) %13, ptr noundef %15)
  br label %34

17:                                               ; preds = %3
  %18 = load ptr, ptr %6, align 8
  %19 = load ptr, ptr %5, align 8
  %20 = call i32 @_ZNK4llvm5DstOp6getRegEv(ptr noundef nonnull align 8 dereferenceable(12) %19)
  %21 = getelementptr inbounds nuw %"class.llvm::Register", ptr %7, i32 0, i32 0
  store i32 %20, ptr %21, align 4
  %22 = getelementptr inbounds nuw %"class.llvm::Register", ptr %7, i32 0, i32 0
  %23 = load i32, ptr %22, align 4
  %24 = call noundef nonnull align 8 dereferenceable(16) ptr @_ZNK4llvm23GISelInstProfileBuilder12addNodeIDRegENS_8RegisterE(ptr noundef nonnull align 8 dereferenceable(16) %18, i32 %23)
  br label %34

25:                                               ; preds = %3
  %26 = load ptr, ptr %6, align 8
  %27 = load ptr, ptr %5, align 8
  %28 = call noundef ptr @_ZNK4llvm16MachineIRBuilder6getMRIEv(ptr noundef nonnull align 8 dereferenceable(88) %9)
  %29 = call i64 @_ZNK4llvm5DstOp8getLLTTyERKNS_19MachineRegisterInfoE(ptr noundef nonnull align 8 dereferenceable(12) %27, ptr noundef nonnull align 8 dereferenceable(512) %28)
  %30 = getelementptr inbounds nuw %"class.llvm::LLT", ptr %8, i32 0, i32 0
  store i64 %29, ptr %30, align 8
  %31 = getelementptr inbounds nuw %"class.llvm::LLT", ptr %8, i32 0, i32 0
  %32 = load i64, ptr %31, align 8
  %33 = call noundef nonnull align 8 dereferenceable(16) ptr @_ZNK4llvm23GISelInstProfileBuilder16addNodeIDRegTypeENS_3LLTE(ptr noundef nonnull align 8 dereferenceable(16) %26, i64 %32)
  br label %34

34:                                               ; preds = %25, %17, %12
  ret void
}