; Function Attrs: mustprogress nounwind uwtable
define dso_local void @_ZNK4llvm13CSEMIRBuilder12profileDstOpERKNS_5DstOpERNS_23GISelInstProfileBuilderE(ptr nocapture noundef nonnull readonly align 8 dereferenceable(88) %0, ptr nocapture noundef nonnull readonly align 8 dereferenceable(12) %1, ptr noundef nonnull align 8 dereferenceable(16) %2) local_unnamed_addr #1 align 2 {
  %4 = getelementptr inbounds nuw i8, ptr %1, i64 8
  %5 = load i32, ptr %4, align 8
  switch i32 %5, label %_ZNK4llvm19MachineRegisterInfo7getTypeENS_8RegisterE.exit.sink.split.i [
    i32 2, label %6
    i32 1, label %9
  ]

6:                                                ; preds = %3
  %7 = load ptr, ptr %1, align 8
  %8 = tail call noundef nonnull align 8 dereferenceable(16) ptr @_ZNK4llvm23GISelInstProfileBuilder16addNodeIDRegTypeEPKNS_19TargetRegisterClassE(ptr noundef nonnull align 8 dereferenceable(16) %2, ptr noundef %7) #16
  br label %13

9:                                                ; preds = %3
  %.sroa.0.0.copyload.i = load i32, ptr %1, align 8
  %10 = tail call noundef nonnull align 8 dereferenceable(16) ptr @_ZNK4llvm23GISelInstProfileBuilder12addNodeIDRegENS_8RegisterE(ptr noundef nonnull align 8 dereferenceable(16) %2, i32 %.sroa.0.0.copyload.i) #16
  br label %13

_ZNK4llvm19MachineRegisterInfo7getTypeENS_8RegisterE.exit.sink.split.i: ; preds = %3
  %11 = load i64, ptr %1, align 8
  %12 = tail call noundef nonnull align 8 dereferenceable(16) ptr @_ZNK4llvm23GISelInstProfileBuilder16addNodeIDRegTypeENS_3LLTE(ptr noundef nonnull align 8 dereferenceable(16) %2, i64 %11) #16
  br label %13

13:                                               ; preds = %_ZNK4llvm19MachineRegisterInfo7getTypeENS_8RegisterE.exit.sink.split.i, %9, %6
  ret void
}